target datalayout = "e-m:e-p270:32:32-p271:32:32-p272:64:64-i64:64-i128:128-f80:128-n8:16:32:64-S128"
target triple = "x86_64-unknown-linux-gnu"

%"class.v8::Local" = type { %"class.v8::LocalBase" }
%"class.v8::LocalBase" = type { %"class.v8::IndirectHandleBase" }
%"class.v8::IndirectHandleBase" = type { ptr }

; Function Attrs: mustprogress nounwind uwtable
define dso_local void @_ZN4node14PrincipalRealmC2EPNS_11EnvironmentEN2v85LocalINS3_7ContextEEEPKNS_18RealmSerializeInfoE(ptr noundef nonnull align 8 dereferenceable(872) %this, ptr noundef %env, ptr %context.coerce, ptr noundef %realm_info) unnamed_addr #4 align 2 {
entry:
  %context = alloca %"class.v8::Local", align 8
  %this.addr = alloca ptr, align 8
  %env.addr = alloca ptr, align 8
  %realm_info.addr = alloca ptr, align 8
  %agg.tmp = alloca %"class.v8::Local", align 8
  %coerce.dive = getelementptr inbounds %"class.v8::Local", ptr %context, i32 0, i32 0
  %coerce.dive1 = getelementptr inbounds %"class.v8::LocalBase", ptr %coerce.dive, i32 0, i32 0
  %coerce.dive2 = getelementptr inbounds %"class.v8::IndirectHandleBase", ptr %coerce.dive1, i32 0, i32 0
  store ptr %context.coerce, ptr %coerce.dive2, align 8
  store ptr %this, ptr %this.addr, align 8
  store ptr %env, ptr %env.addr, align 8
  store ptr %realm_info, ptr %realm_info.addr, align 8
  %this3 = load ptr, ptr %this.addr, align 8
  %0 = load ptr, ptr %env.addr, align 8
  call void @llvm.memcpy.p0.p0.i64(ptr align 8 %agg.tmp, ptr align 8 %context, i64 8, i1 false)
  %coerce.dive4 = getelementptr inbounds %"class.v8::Local", ptr %agg.tmp, i32 0, i32 0
  %coerce.dive5 = getelementptr inbounds %"class.v8::LocalBase", ptr %coerce.dive4, i32 0, i32 0
  %coerce.dive6 = getelementptr inbounds %"class.v8::IndirectHandleBase", ptr %coerce.dive5, i32 0, i32 0
  %1 = load ptr, ptr %coerce.dive6, align 8
  call void @_ZN4node5RealmC2EPNS_11EnvironmentEN2v85LocalINS3_7ContextEEENS0_4KindE(ptr noundef nonnull align 8 dereferenceable(872) %this3, ptr noundef %0, ptr %1, i32 noundef 0)
  store ptr getelementptr inbounds ({ [132 x ptr] }, ptr @_ZTVN4node14PrincipalRealmE, i32 0, i32 0, i32 2), ptr %this3, align 8
  %2 = load ptr, ptr %realm_info.addr, align 8
  %cmp = icmp eq ptr %2, null
  br i1 %cmp, label %if.then, label %if.end

if.then:                                          ; preds = %entry
  call void @_ZN4node5Realm16CreatePropertiesEv(ptr noundef nonnull align 8 dereferenceable(872) %this3)
  br label %if.end

if.end:                                           ; preds = %if.then, %entry
  ret void
}