; Function Attrs: mustprogress nounwind uwtable
define dso_local void @_ZN4node14PrincipalRealmC2EPNS_11EnvironmentEN2v85LocalINS3_7ContextEEEPKNS_18RealmSerializeInfoE(ptr noundef nonnull align 8 dereferenceable(872) %this, ptr noundef %env, ptr %context.coerce, ptr noundef readnone %realm_info) unnamed_addr #3 align 2 {
entry:
  tail call void @_ZN4node5RealmC2EPNS_11EnvironmentEN2v85LocalINS3_7ContextEEENS0_4KindE(ptr noundef nonnull align 8 dereferenceable(872) %this, ptr noundef %env, ptr %context.coerce, i32 noundef 0)
  store ptr getelementptr inbounds ({ [132 x ptr] }, ptr @_ZTVN4node14PrincipalRealmE, i64 0, i32 0, i64 2), ptr %this, align 8
  %cmp = icmp eq ptr %realm_info, null
  br i1 %cmp, label %if.then, label %if.end

if.then:                                          ; preds = %entry
  tail call void @_ZN4node5Realm16CreatePropertiesEv(ptr noundef nonnull align 8 dereferenceable(872) %this)
  br label %if.end

if.end:                                           ; preds = %if.then, %entry
  ret void
}